(dp1
S'output'
p2
S"<type 'exceptions.AttributeError'> 'dict' object has no attribute 'bill_name'"
p3
sS'layer'
p4
S'/mnt/c/web2py/applications/project/controllers/api.py'
p5
sS'code'
p6
S'import random\n\ndef index():\n    pass\n\ndef get_user_name_from_email(email):\n    """Returns a string corresponding to the user first and last names,\n    given the user email."""\n    u = db(db.auth_user.email == email).select().first()\n    if u is None:\n        return \'None\'\n    else:\n        return \' \'.join([u.first_name, u.last_name])\n\n\n# Mocks implementation.\ndef get_posts():\n    start_idx = int(request.vars.start_idx) if request.vars.start_idx is not None else 0\n    end_idx = int(request.vars.end_idx) if request.vars.end_idx is not None else 0\n    # We just generate a lot of of data.\n    posts = []\n    items = []\n    has_more = False\n    rows = db().select(db.post.ALL, limitby=(start_idx, end_idx + 1), orderby=~db.post.created_on)\n\n    for i, r in enumerate(rows):\n        if i < end_idx - start_idx:\n\n            if auth.user_id is not None and r.user_email == auth.user.email:\n                mypost = True\n            else:\n                mypost = False\n\n            t = dict(\n                id = r.id,\n                post_content = r.post_content,\n                user_email = get_user_name_from_email(r.user_email),\n                created_on = r.created_on,\n                updated_on = r.updated_on,\n                circle = r.circle,\n                price = r.price,\n                status = r.status,\n                mypost = mypost,\n                contributors = []\n            )\n            posts.append(t)\n        else:\n            has_more = True\n\n    item_rows = db().select(db.item.ALL)\n    for i, r in enumerate(item_rows):\n        t = dict(\n            id = r.id,\n            bill_name = r.bill_name,\n            item_name = r.item_name,\n            creator = r.creator,\n            contributors = r.contributors,\n            price = r.price,\n            status = r.status\n        )\n        items.append(t)\n\n\n    for post in posts:\n        for item in items:\n            if (item.bill_name == post.post_content):\n                item_contributors = item.contributors.split(";")\n                print("yo " + item_contributors)\n\n\n    logged_in = auth.user_id is not None\n    print(auth.user_id)\n\n    return response.json(dict(\n        posts=posts,\n        items=items,\n        logged_in=logged_in,\n        has_more=has_more,\n\n    ))\n\n@auth.requires_signature()\ndef add_post():\n    t_id = db.post.insert(\n        post_content = request.vars.post_content,\n        circle = request.vars.circle,\n        price = request.vars.price,\n        status = request.vars.status\n    )\n    t = db.post(t_id)\n    return response.json(dict(post=t))\n\n@auth.requires_signature()\ndef del_post():\n    db(db.post.id == request.vars.post_id).delete()\n    return "ok"\n\n@auth.requires_signature()\ndef del_item():\n    db(db.item.id == request.vars.item_id).delete()\n    return "ok"\n\n\n@auth.requires_signature()\ndef edit_post():\n    t_id = request.vars.post_id\n    row = db(db.item.id == t_id).select(db.item.contributors)\n    row.update_record(post_content=request.vars.edit_content)\n    return "ok"\n\n\n@auth.requires_signature()\ndef add_contributor():\n    t_id = request.vars.item_id\n    row = db(db.item.id == t_id).select().first()\n    print(row)\n    if (row.contributors is None):\n        new_contributors = get_user_name_from_email(auth.user.email) + ";"\n    else:\n        if get_user_name_from_email(auth.user.email) in row.contributors.split(";"):\n            print "already in contributors"\n            return "ok"\n        new_contributors = row.contributors + get_user_name_from_email(auth.user.email) + ";"\n    row.update_record(contributors=new_contributors)\n    return "ok"\n\n@auth.requires_signature()\ndef add_item():\n    t_id = db.item.insert(\n        bill_name = request.vars.bill_name,\n        item_name = request.vars.item_name,\n        price = request.vars.price\n    )\n    t = db.item(t_id)\n    return response.json(dict(item=t))\n\n\ndef update_post():\n    """Here we get edits to a post and update the database"""\n\n    #This check prevents empty updates from being submitted\n    if request.vars.edit_content != "":\n        p = db.post(request.vars.post_id)\n        p.post_content = request.vars.edit_content\n        p.updated_on = datetime.datetime.utcnow()\n        p.update_record()\n        response.flash = T("Post Updated")\n        return response.json(dict(post=p, idx = False))\n    else:\n        response.flash = T("Post Cannot Be Empty")\n        return response.json(dict(idx=True))\n\nresponse._vars=response._caller(get_posts)\n'
p7
sS'snapshot'
p8
(dp9
sS'traceback'
p10
S'Traceback (most recent call last):\n  File "/mnt/c/web2py/gluon/restricted.py", line 227, in restricted\n    exec ccode in environment\n  File "/mnt/c/web2py/applications/project/controllers/api.py", line 153, in <module>\n  File "/mnt/c/web2py/gluon/globals.py", line 417, in <lambda>\n    self._caller = lambda f: f()\n  File "/mnt/c/web2py/applications/project/controllers/api.py", line 66, in get_posts\n    if (item.bill_name == post.post_content):\nAttributeError: \'dict\' object has no attribute \'bill_name\'\n'
p11
s.