(dp1
S'output'
p2
S'Unable to open included view file: C:\\Users\\Foppylau\\example\\web2py\\applications\\payment\\views\\login_page.html'
p3
sS'layer'
p4
S'ParserContainer'
p5
sS'code'
p6
S'{{extend \'login_page.html\'}}\r\n\r\n\r\n    <h2>\r\n    {{=T(\'Sign Up\') if request.args(0) == \'register\' else T(\'\') if request.args(0) == \'login\' else T(request.args(0).replace(\'_\',\' \').title())}}\r\n    </h2>\r\n\r\n    <div class="full">\r\n        <div class="row" >\r\n            <br><br><br><br><br><br><br><br>\r\n            <div id="web2py_user_form" class="col-lg-4"> </div>\r\n            <div id="web2py_user_form" class="col-lg-4">\r\n            {{\r\n            if request.args(0)==\'login\':\r\n                if not \'register\' in auth.settings.actions_disabled:\r\n                    form.add_button(T(\'Sign Up\'),URL(args=\'register\', vars={\'_next\': request.vars._next} if request.vars._next else None))\r\n                pass\r\n                if not \'request_reset_password\' in auth.settings.actions_disabled:\r\n                    form.add_button(T(\'Lost Password\'),URL(args=\'request_reset_password\'),_class=\'button\')\r\n                pass\r\n            pass\r\n            =form\r\n            }}\r\n            </div>\r\n            <div id="web2py_user_form" class="col-lg-4"> </div>\r\n        </div>\r\n    </div>\r\n\r\n\r\n    {{block page_js}}\r\n    <script>\r\n        jQuery("#web2py_user_form input:visible:enabled:first").focus();\r\n    {{if request.args(0)==\'register\':}}\r\n        web2py_validate_entropy(jQuery(\'#auth_user_password\'),100);\r\n    {{elif request.args(0)==\'change_password\':}}\r\n        web2py_validate_entropy(jQuery(\'#no_table_new_password\'),100);\r\n    {{pass}}\r\n    </script>\r\n    {{end page_js}}\r\n'
p7
sS'snapshot'
p8
(dp9
S'exception'
p10
(dp11
S'__getslice__'
p12
S"<method-wrapper '__getslice__' of exceptions.IOError object>"
p13
sS'__str__'
p14
S"<method-wrapper '__str__' of exceptions.IOError object>"
p15
sS'__reduce__'
p16
S'<built-in method __reduce__ of exceptions.IOError object>'
p17
sS'__dict__'
p18
S'{}'
p19
sS'__sizeof__'
p20
S'<built-in method __sizeof__ of exceptions.IOError object>'
p21
sS'__init__'
p22
S"<method-wrapper '__init__' of exceptions.IOError object>"
p23
sS'__setattr__'
p24
S"<method-wrapper '__setattr__' of exceptions.IOError object>"
p25
sS'__reduce_ex__'
p26
S'<built-in method __reduce_ex__ of exceptions.IOError object>'
p27
sS'__new__'
p28
S'<built-in method __new__ of type object>'
p29
sS'errno'
p30
S'2'
sS'__format__'
p31
S'<built-in method __format__ of exceptions.IOError object>'
p32
sS'__class__'
p33
S"<type 'exceptions.IOError'>"
p34
sS'filename'
p35
S"r'C:\\Users\\Foppylau\\example\\web2py\\applications\\payment\\views\\login_page.html'"
p36
sS'__doc__'
p37
S"'I/O operation failed.'"
p38
sS'__getitem__'
p39
S"<method-wrapper '__getitem__' of exceptions.IOError object>"
p40
sS'__setstate__'
p41
S'<built-in method __setstate__ of exceptions.IOError object>'
p42
sS'__getattribute__'
p43
S"<method-wrapper '__getattribute__' of exceptions.IOError object>"
p44
sS'args'
p45
S"(2, 'No such file or directory')"
p46
sS'__subclasshook__'
p47
S'<built-in method __subclasshook__ of type object>'
p48
sS'__unicode__'
p49
S'<built-in method __unicode__ of exceptions.IOError object>'
p50
sS'strerror'
p51
S"'No such file or directory'"
p52
sS'__delattr__'
p53
S"<method-wrapper '__delattr__' of exceptions.IOError object>"
p54
sS'__repr__'
p55
S"<method-wrapper '__repr__' of exceptions.IOError object>"
p56
sS'__hash__'
p57
S"<method-wrapper '__hash__' of exceptions.IOError object>"
p58
ssS'evalue'
p59
S"[Errno 2] No such file or directory: 'C:\\\\Users\\\\Foppylau\\\\example\\\\web2py\\\\applications\\\\payment\\\\views\\\\login_page.html'"
p60
sS'frames'
p61
(lp62
(dp63
S'file'
p64
S'C:\\Users\\Foppylau\\example\\web2py\\gluon\\template.py'
p65
sS'dump'
p66
(dp67
S'builtinopen'
p68
S'<built-in function open>'
p69
sS'fileobj'
p70
S'undefined'
p71
sS'filepath'
p72
S"r'C:\\Users\\Foppylau\\example\\web2py\\applications\\payment\\views\\login_page.html'"
p73
ssS'lnum'
p74
I450
sS'lines'
p75
(dp76
I448
S'        # try to read the text.'
p77
sI449
S'        try:'
p78
sI450
S"            fileobj = open(filepath, 'rb')"
p79
sI451
S'            text = fileobj.read()'
p80
sI452
S'            fileobj.close()'
p81
sI453
S'        except IOError:'
p82
sI454
S"            self._raise_error('Unable to open included view file: ' + filepath)"
p83
sI445
S'        # Get the path of the file on the system.'
p84
sI446
S'        filepath = self.path and os.path.join(self.path, filename) or filename'
p85
sI447
S''
ssS'call'
p86
S"(self=<gluon.template.TemplateParser object>, filename='login_page.html')"
p87
sS'func'
p88
S'_get_file_text'
p89
sasS'pyver'
p90
S'Python 2.7.12: C:\\Users\\Foppylau\\Anaconda2\\python.exe (prefix: C:\\Users\\Foppylau\\Anaconda2)'
p91
sS'etype'
p92
S"<type 'exceptions.IOError'>"
p93
sS'date'
p94
S'Thu Nov 10 21:02:28 2016'
p95
sS'locals'
p96
(dp97
S'self'
p98
S'<gluon.template.TemplateParser object>'
p99
sS'filepath'
p100
S"r'C:\\Users\\Foppylau\\example\\web2py\\applications\\payment\\views\\login_page.html'"
p101
sS'context'
p102
S"{'A': <class 'gluon.html.A'>, 'ANY_OF': <class 'gluon.validators.ANY_OF'>, 'ASSIGNJS': <function ASSIGNJS>, 'AppConfig': <function AppConfig>, 'Auth': <class 'gluon.tools.Auth'>, 'B': <class 'gluon.html.B'>, 'BEAUTIFY': <class 'gluon.html.BEAUTIFY'>, 'BODY': <class 'gluon.html.BODY'>, 'BR': <class 'gluon.html.BR'>, 'BUTTON': <class 'gluon.html.BUTTON'>, ...}"
p103
sg35
S"'login_page.html'"
p104
sssS'traceback'
p105
S'Traceback (most recent call last):\n  File "C:\\Users\\Foppylau\\example\\web2py\\gluon\\template.py", line 450, in _get_file_text\n    fileobj = open(filepath, \'rb\')\nIOError: [Errno 2] No such file or directory: \'C:\\\\Users\\\\Foppylau\\\\example\\\\web2py\\\\applications\\\\payment\\\\views\\\\login_page.html\'\n'
p106
s.