(dp1
S'output'
p2
S'missing "pass" in view'
p3
sS'layer'
p4
S'ParserContainer'
p5
sS'code'
p6
S'response.write(\'<!DOCTYPE html>\\r\\n<!--[if (gt IE 9)|!(IE)]><!--> <html class="no-js" lang="\', escape=False)\nresponse.write(T.accepted_language or \'en\')\nresponse.write(\'"> <!--<![endif]-->\\r\\n  <head>\\r\\n\\r\\n    <meta charset="utf-8">\\r\\n    <!-- www.phpied.com/conditional-comments-block-downloads/ -->\\r\\n    <!-- Always force latest IE rendering engine\\r\\n         (even in intranet) & Chrome Frame\\r\\n         Remove this if you use the .htaccess -->\\r\\n    <meta http-equiv="X-UA-Compatible" content="IE=edge\', escape=False)\nresponse.write(not request.is_local and \',chrome=1\' or \'\')\nresponse.write(\'">\\r\\n    <!--  Mobile Viewport Fix\\r\\n          j.mp/mobileviewport & davidbcalhoun.com/2010/viewport-metatag\\r\\n          device-width: Occupy full width of the screen in its current orientation\\r\\n          initial-scale = 1.0 retains dimensions instead of zooming out if page height > device height\\r\\n          user-scalable = yes allows the user to zoom in -->\\r\\n    <meta name="viewport" content="width=device-width, initial-scale=1.0">\\r\\n    <title>\', escape=False)\nresponse.write(response.title or request.application)\nresponse.write(\'</title>\\r\\n    <!-- http://dev.w3.org/html5/markup/meta.name.html -->\\r\\n    <meta name="application-name" content="\', escape=False)\nresponse.write(request.application)\nresponse.write(\'">\\r\\n    <!-- Speaking of Google, don\\\'t forget to set your site up:\\r\\n         http://google.com/webmasters -->\\r\\n    <meta name="google-site-verification" content="">\\r\\n    <!-- include stylesheets -->\\r\\n    <link rel="stylesheet" href="\', escape=False)\nresponse.write(URL(\'static\',\'css/bootstrap.min.css\'))\nresponse.write(\'"/>\\r\\n    <link rel="stylesheet" href="\', escape=False)\nresponse.write(URL(\'static\',\'css/web2py-bootstrap3.css\'))\nresponse.write(\'"/>\\r\\n    <link rel="stylesheet" href="\', escape=False)\nresponse.write(URL(\'static\',\'css/myapp.css\'))\nresponse.write(\'"/>\\r\\n    <link rel="stylesheet" href="\', escape=False)\nresponse.write(URL(\'static\', \'font-awesome-4.6.3/css/font-awesome.min.css\'))\nresponse.write(\'"/>\\r\\n\\r\\n    <link rel="shortcut icon" href="\', escape=False)\nresponse.write(URL(\'static\',\'images/favicon.ico\'))\nresponse.write(\'" type="image/x-icon">\\r\\n    <link rel="apple-touch-icon" href="\', escape=False)\nresponse.write(URL(\'static\',\'images/favicon.png\'))\nresponse.write(\'">\\r\\n    <!-- All JavaScript at the bottom, except for Modernizr which enables\\r\\n         HTML5 elements & feature detects -->\\r\\n    <script src="\', escape=False)\nresponse.write(URL(\'static\',\'js/modernizr-2.8.3.min.js\'))\nresponse.write(\'"></script>\\r\\n    <!--[if lt IE 9]>\\r\\n        <script src="\', escape=False)\nresponse.write(URL(\'static\',\'js/respond-1.4.2.min.js\'))\nresponse.write(\'"></script>\\r\\n        <![endif]-->\\r\\n    <!-- Favicons -->\\r\\n    \', escape=False)\nresponse.write(\'<script type="text/javascript"><!--\\r\\n    // These variables are used by the web2py_ajax_init function in web2py_ajax.js (which is loaded below).\\r\\n    var w2p_ajax_confirm_message = "\', escape=False)\nresponse.write(T(\'Are you sure you want to delete this object?\'))\nresponse.write(\'";\\r\\n    var w2p_ajax_disable_with_message = "\', escape=False)\nresponse.write(T(\'Working...\'))\nresponse.write(\'";\\r\\n    var w2p_ajax_date_format = "\', escape=False)\nresponse.write(T(\'%Y-%m-%d\'))\nresponse.write(\'";\\r\\n    var w2p_ajax_datetime_format = "\', escape=False)\nresponse.write(T(\'%Y-%m-%d %H:%M:%S\'))\nresponse.write(\'";\\r\\n    var ajax_error_500 = \\\'\', escape=False)\nresponse.write(T.M(\'An error occured, please [[reload %s]] the page\') % URL(args=request.args, vars=request.get_vars))\nresponse.write("\'\\r\\n    //--></script>\\r\\n", escape=False)\nresponse.files.insert(0,URL(\'static\',\'js/jquery.js\'))\nresponse.files.insert(1,URL(\'static\',\'css/calendar.css\'))\nresponse.files.insert(2,URL(\'static\',\'js/calendar.js\'))\nresponse.files.insert(3,URL(\'static\',\'js/web2py.js\'))\nresponse.include_meta()\nresponse.include_files()\nresponse.write(\'\\r\\n\', escape=False)\nresponse.write(\' <!-- this includes jquery.js, calendar.js/.css and web2py.js -->\\r\\n    \', escape=False)\nresponse.write(\'\\r\\n<script src="\', escape=False)\nresponse.write(URL(\'static\', \'js/vue.js\'))\nresponse.write(\'"></script>\\r\\n<script>\\r\\n    var posts_url = "\', escape=False)\nresponse.write(URL(\'api\', \'get_posts\'))\nresponse.write(\'";\\r\\n    var add_post_url = "\', escape=False)\nresponse.write(URL(\'api\', \'add_post\', user_signature=True))\nresponse.write(\'";\\r\\n    var del_post_url = "\', escape=False)\nresponse.write(URL(\'api\', \'del_post\', user_signature=True))\nresponse.write(\'";\\r\\n    var edit_post_url = "\', escape=False)\nresponse.write(URL(\'api\', \'edit_post\', user_signature=True))\nresponse.write(\'";\\r\\n</script>\\r\\n\', escape=False)\nresponse.write(\'\\r\\n  </head>\\r\\n  <body>\\r\\n\\r\\n        <!--[if lt IE 8]><p class="browserupgrade">You are using an <strong>outdated</strong> browser. Please <a href="http://browsehappy.com/">upgrade your browser</a> to improve your experience.</p><![endif]-->\\r\\n        <div class="w2p_flash alert alert-dismissable">\', escape=False)\nresponse.write(response.flash or \'\')\nresponse.write(\'</div>\\r\\n    <!-- Begin page content -->\\r\\n    <div>\\r\\n      <div >\\r\\n        \', escape=False)\nresponse.write(\'\\r\\n        \', escape=False)\nresponse.write(\'\\r\\n\\r\\n\', escape=False)\nresponse.write(\'\\r\\n\\r\\n\\r\\n<body class="housemates">\\r\\n<div class="col-lg-9" style="width:78%;">\\r\\n\\r\\n    <h2 style="display: inline-block; text-align: center;">Housemates</h2>\\r\\n    <ul class="nav navbar-nav navbar-right" style="display: inline-block;">\\r\\n        \', escape=False)\nresponse.write(\'auth\' in globals() and auth.navbar(\'Welcome\',mode=\'dropdown\') or \'\')\nresponse.write(\'\\r\\n    </ul>\\r\\n\\r\\n    <div id="vue-div" class="bills">\\r\\n        <div class="button_bar">\\r\\n            <button v-if="!is_adding_post" class="btn btn-danger btn-sm" v-on:click="add_post_button()" v-bind:class="{\\\'disabled\\\': !logged_in}">\\r\\n                \', escape=False)\nresponse.write(icon_add)\nresponse.write(\'Add Bill\\r\\n            </button>\\r\\n            <button v-if="is_adding_post" class="btn btn-warning btn-sm" v-on:click="add_post_button()">\\r\\n                \', escape=False)\nresponse.write(icon_cancel)\nresponse.write(\'Cancel\\r\\n            </button>\\r\\n        </div>\\r\\n\\r\\n\\r\\n    <div v-if="is_adding_post" id="add_post_div">\\r\\n        <form action="#" v-on:submit.prevent="add_post()" enctype="multipart/form-data" method="post">\\r\\n            <div class="form-group" id="no_table_artist__row">\\r\\n                <div>\\r\\n                    <input class="content" id="no_table_content" v-model="form_content" placeholder="Bill Name" type="text" />\\r\\n                    <input class="content" id="no_table_artist" v-model="form_payer" placeholder="Payer" type="text" />\\r\\n                    <select class="content" id="no_table_artist" v-model="form_circle" placeholder="Group" type="text">\\r\\n                        <option value="selected"  class="s">Select your option</option>\\r\\n                        <option value="Housemates">Housemates</option>\\r\\n                        <option value="Events">Events</option>\\r\\n                        <option value="Individual loans">Individual loans</option>\\r\\n                        <option value="Subscriptions">Subscriptions</option>\\r\\n                    </select>\\r\\n                   <!-- <input class="content" id="no_table_artist" v-model="form_bill" placeholder="Bill Name" type="text" />-->\\r\\n                    <input class="content" id="no_table_artist" v-model="form_price" placeholder="Price: $" type="decimal" />\\r\\n                    <select class="content" id="no_table_artist" v-model="form_status" placeholder="Group" type="text">\\r\\n                        <option value="Pay">Pay</option>\\r\\n                        <option value="Pending">Pending</option>\\r\\n                        <option value="Confirmed">Confirmed</option>\\r\\n                    </select>\\r\\n\\r\\n                </div>\\r\\n            </div>\\r\\n\\r\\n            <div v-if="is_adding_post" v-on:click="add_post_button()" class="form-group" id="submit_record__row">\\r\\n                <div>\\r\\n                    <input class="btn" id="add_post_submit" type="submit" value="Submit" />\\r\\n                </div>\\r\\n            </div>\\r\\n\\r\\n        </form>\\r\\n    </div>\\r\\n\\r\\n        <div class="result_table" v-bind:style="style_result">\\r\\n            <div  v-for="post in posts">\\r\\n                <div class ="posts_style"  v-if="post.circle == \\\'Housemates\\\'">\\r\\n                    <div v-if="!is_editing_post"><h2>${post.post_content}</h2></div>\\r\\n\\r\\n\\r\\n                    <div v-if="is_editing_post" id="edit_post_div">\\r\\n                        <form action="#" v-on:submit.prevent="edit_post(post.id)" class="form-horizontal" enctype="multipart/form-data" method="post">\\r\\n                            <div class="form-group" id="no_table_artist__row">\\r\\n                                <div>\\r\\n                                    <textarea class="form-control string" id="no_table_content" v-model="post.bill" value="pre-fill" type="text"> </textarea>\\r\\n                                    <textarea class="form-control string" id="no_table_content" v-model="post.created_on" value="pre-fill" type="text"> </textarea>\\r\\n                                    <textarea class="form-control string" id="no_table_content" v-model="post.creator" value="pre-fill" type="text"> </textarea>\\r\\n                                    <textarea class="form-control string" id="no_table_content" v-model="post.payer" value="pre-fill" type="text"> </textarea>\\r\\n                                    <textarea class="form-control string" id="no_table_content" v-model="post.price" value="pre-fill" type="text"> </textarea>\\r\\n                                    <textarea class="form-control string" id="no_table_content" v-model="post.status" value="pre-fill" type="text"> </textarea>\\r\\n                                    <span class="help-block">Edit your post here, refresh to see edit</span>\\r\\n                                </div>\\r\\n                            </div>\\r\\n                            <div v-if="is_editing_post" v-on:click="edit_post_button()" class="form-group" id="submit_record__row">\\r\\n                                <div>\\r\\n                                    <input class="btn" id="edit_post_submit" type="submit" value="Submit" />\\r\\n                                </div>\\r\\n                            </div>\\r\\n                            <button class="btn btn-warning btn-sm" v-on:click="edit_post_button()">\\r\\n                                        \', escape=False)\nresponse.write(icon_cancel)\nresponse.write(\'Cancel\\r\\n                            </button>\\r\\n                        </form>\\r\\n                    </div>\\r\\n                            <div class="item" v-if="!is_editing_post">\\r\\n                                    <p>${post.bill}</p>\\r\\n                                    <p>Created On: ${post.created_on}</p>\\r\\n                                    <p>Creator: ${post.creator}</p>\\r\\n                                    <p>Payer: ${post.payer}</p>\\r\\n                                    <p>Price: ${post.price}</p>\\r\\n                                    <p>Status: ${post.status}</p>\\r\\n\\r\\n                                    <i class="fa fa-trash-o" v-if="post.mypost" style="text-align: center; width:6%; display: inline-block; " v-on:click="delete_post(post.id)"></i>\\r\\n                                    <i class="fa fa-pencil" style="display:inline-block;" v-if="post.mypost"  v-on:click="edit_post_button()" v-bind:class="{\\\'disabled\\\': !logged_in}"></i>\\r\\n\\r\\n\\r\\n\\r\\n                            </div>\\r\\n\\r\\n\\r\\n            </div>\\r\\n            </div>\\r\\n\\r\\n           <!-- <div v-if="has_more" class="show_more"><button class="btn btn-default" v-on:click="get_more()">Load more</button></div>-->\\r\\n\\r\\n\\r\\n\\r\\n        </div>\\r\\n\\r\\n    </div>\\r\\n    </div>\\r\\n\\r\\n    \', escape=False)\nif auth.user_id is not None:\n    response.write(\'\\r\\n    <div class="sidebar col-lg-3" >\\r\\n        <div class="profile">\\r\\n\\r\\n            <div class="btn btn-group-justified">\\r\\n                <a href=\', escape=False)\n    response.write(URL(\'default\', \'settings\'))\n    response.write(\'>Settings</a>\\r\\n            </div>\\r\\n\\r\\n            <div id="circle">\\r\\n                <img src="\', escape=False)\n    response.write(URL(\'default\', \'download\', args=profile_pic))\n    response.write(\'" width=100 height=100 >\\r\\n            </div>\\r\\n\\r\\n            <p v-if="logged_in"style="font-size:15px;">\', escape=False)\n    response.write(get_user_name_from_email(auth.user.email))\n    response.write(\'</p>\\r\\n            <p style="text-decoration-color: red;">Owes: </p>\\r\\n            <p style="text-decoration-color: blue;">Pending: </p>\\r\\n\\r\\n        </div>\\r\\n        <div class="categories">\\r\\n\\r\\n                <a href=\', escape=False)\n    response.write(URL(\'default\', \'housemate\'))\n    response.write(\'><button class="housemates">Housemates</button></a>\\r\\n                <a href=\', escape=False)\n    response.write(URL(\'default\', \'events\'))\n    response.write(\'><button class="events">Events</button></a>\\r\\n                <a href=\', escape=False)\n    response.write(URL(\'default\', \'individual_loans\'))\n    response.write(\'><button class="loans">Individual Loans</button></a>\\r\\n                <a href=\', escape=False)\n    response.write(URL(\'default\', \'subscriptions\'))\n    response.write(\'><button class="subscriptions">Subscriptions</button></a>\\r\\n                <a href=\', escape=False)\n    response.write(URL(\'default\', \'newsfeed\'))\n    response.write(\'><button class="newsfeed">News Feed</button></a>\\r\\n        </div>\\r\\n    </div>\\r\\n</body>\\r\\n\\r\\n<script src="\', escape=False)\n    response.write(URL(\'static\', \'js/default_index.js\'))\n    response.write(\'"></script>\\r\\n\', escape=False)\n    response.write(\'\\r\\n        \', escape=False)\n    response.write(\'\\r\\n      </div>\\r\\n    </div>\\r\\n\\r\\n    <!-- The javascript =============================== -->\\r\\n    <script src="\', escape=False)\n    response.write(URL(\'static\',\'js/bootstrap.min.js\'))\n    response.write(\'"></script>\\r\\n    <script src="\', escape=False)\n    response.write(URL(\'static\',\'js/web2py-bootstrap3.js\'))\n    response.write(\'"></script>\\r\\n    \', escape=False)\n    response.write(\'\\r\\n    \', escape=False)\n    if response.google_analytics_id:\n        response.write(\'\\r\\n    <!-- Analytics ==================================== -->\\r\\n    <script src="\', escape=False)\n        response.write(URL(\'static\',\'js/analytics.min.js\'))\n        response.write(\'"></script>\\r\\n    <script type="text/javascript">\\r\\n      analytics.initialize({\\r\\n      \\\'Google Analytics\\\':{trackingId:\\\'\', escape=False)\n        response.write(response.google_analytics_id)\n        response.write("\'}\\r\\n      });\\r\\n    </script>\\r\\n    ", escape=False)\n        pass\n    response.write(\'\\r\\n    <!-- Share ============================y============ -->\\r\\n    <script src="\', escape=False)\n    response.write(URL(\'static\',\'js/share.js\',vars=dict(static=URL(\'static\',\'images\'))))\n    response.write(\'"></script>\\r\\n  </body>\\r\\n</html>\\r\\n\', escape=False)'
p7
sS'snapshot'
p8
(dp9
S'exception'
p10
(dp11
S'__module__'
p12
S"'gluon.rocket'"
p13
sS'__getslice__'
p14
S"<method-wrapper '__getslice__' of SocketTimeout object>"
p15
sS'__str__'
p16
S"<method-wrapper '__str__' of SocketTimeout object>"
p17
sS'__reduce__'
p18
S'<built-in method __reduce__ of SocketTimeout object>'
p19
sS'__dict__'
p20
S'{}'
p21
sS'__sizeof__'
p22
S'<built-in method __sizeof__ of SocketTimeout object>'
p23
sS'__weakref__'
p24
S'None'
p25
sS'__init__'
p26
S"<method-wrapper '__init__' of SocketTimeout object>"
p27
sS'__setattr__'
p28
S"<method-wrapper '__setattr__' of SocketTimeout object>"
p29
sS'__reduce_ex__'
p30
S'<built-in method __reduce_ex__ of SocketTimeout object>'
p31
sS'__new__'
p32
S'<built-in method __new__ of type object>'
p33
sS'__format__'
p34
S'<built-in method __format__ of SocketTimeout object>'
p35
sS'__class__'
p36
S"<class 'gluon.rocket.SocketTimeout'>"
p37
sS'__doc__'
p38
S"'Exception for when a socket times out between requests.'"
p39
sS'__getitem__'
p40
S"<method-wrapper '__getitem__' of SocketTimeout object>"
p41
sS'__setstate__'
p42
S'<built-in method __setstate__ of SocketTimeout object>'
p43
sS'__getattribute__'
p44
S"<method-wrapper '__getattribute__' of SocketTimeout object>"
p45
sS'args'
p46
S"('Socket timed out before request.',)"
p47
sS'__subclasshook__'
p48
S'<built-in method __subclasshook__ of type object>'
p49
sS'__unicode__'
p50
S'<built-in method __unicode__ of SocketTimeout object>'
p51
sS'__delattr__'
p52
S"<method-wrapper '__delattr__' of SocketTimeout object>"
p53
sS'__repr__'
p54
S"<method-wrapper '__repr__' of SocketTimeout object>"
p55
sS'__hash__'
p56
S"<method-wrapper '__hash__' of SocketTimeout object>"
p57
ssS'evalue'
p58
S'Socket timed out before request.'
p59
sS'frames'
p60
(lp61
(dp62
S'file'
p63
S'C:\\Users\\Foppylau\\example\\web2py\\gluon\\rocket.py'
p64
sS'dump'
p65
(dp66
S'self'
p67
S'<WSGIWorker(Thread-44, started daemon 5408)>'
p68
sS'conn'
p69
S'<gluon.rocket.Connection object>'
p70
sS'self.run_app'
p71
S'<bound method WSGIWorker.run_app of <WSGIWorker(Thread-44, started daemon 5408)>>'
p72
ssS'lnum'
p73
I1337
sS'lines'
p74
(dp75
I1332
S'            # Enter connection serve loop'
p76
sI1333
S'            while True:'
p77
sI1334
S'                if __debug__:'
p78
sI1335
S"                    self.err_log.debug('Serving a request')"
p79
sI1336
S'                try:'
p80
sI1337
S'                    self.run_app(conn)'
p81
sI1338
S'                except:'
p82
sI1339
S'                    exc = sys.exc_info()'
p83
sI1340
S'                    handled = self._handleError(*exc)'
p84
sI1341
S'                    if handled:'
p85
ssS'call'
p86
S'(self=<WSGIWorker(Thread-44, started daemon 5408)>)'
p87
sS'func'
p88
S'run'
p89
sa(dp90
g63
S'C:\\Users\\Foppylau\\example\\web2py\\gluon\\rocket.py'
p91
sg65
(dp92
S'self'
p93
S'<WSGIWorker(Thread-44, started daemon 5408)>'
p94
sS'self.environ'
p95
S'{\'HTTP_ACCEPT\': \'text/html,application/xhtml+xml,application/xml;q=0.9,image/webp,*/*;q=0.8\', \'HTTP_ACCEPT_ENCODING\': \'gzip, deflate, sdch, br\', \'HTTP_ACCEPT_LANGUAGE\': \'en-US,en;q=0.8\', \'HTTP_CACHE_CONTROL\': \'max-age=0\', \'HTTP_CONNECTION\': \'keep-alive\', \'HTTP_COOKIE\': \'session_id_sethtry="1:2a67cf13-cb0c-4ead-9750-eb...ion_id_e="1:0a7b02bb-74f2-4652-b411-f356c2130c49"\', \'HTTP_HOST\': \'127.0.0.1:8000\', \'HTTP_REFERER\': \'http://127.0.0.1:8000/E/default/housemate\', \'HTTP_UPGRADE_INSECURE_REQUESTS\': \'1\', \'HTTP_USER_AGENT\': \'Mozilla/5.0 (Windows NT 10.0; WOW64) AppleWebKit...ML, like Gecko) Chrome/54.0.2840.99 Safari/537.36\', ...}'
p96
sS'sock_file'
p97
S'<socket._fileobject object>'
p98
sS'environ'
p99
S'undefined'
p100
sS'self.build_environ'
p101
S'<bound method WSGIWorker.build_environ of <WSGIWorker(Thread-44, started daemon 5408)>>'
p102
sS'conn'
p103
S'<gluon.rocket.Connection object>'
p104
ssg73
I1830
sg74
(dp105
I1825
S'        else:'
p106
sI1826
S'            sock_file = conn.makefile(BUF_SIZE)'
p107
sI1827
S''
sI1828
S'        try:'
p108
sI1829
S'            # Read the headers and build our WSGI environment'
p109
sI1830
S'            self.environ = environ = self.build_environ(sock_file, conn)'
p110
sI1831
S''
sI1832
S'            # Handle 100 Continue'
p111
sI1833
S"            if environ.get('HTTP_EXPECT', '') == '100-continue':"
p112
sI1834
S"                res = environ['SERVER_PROTOCOL'] + ' 100 Continue\\r\\n\\r\\n'"
p113
ssg86
S'(self=<WSGIWorker(Thread-44, started daemon 5408)>, conn=<gluon.rocket.Connection object>)'
p114
sg88
S'run_app'
p115
sa(dp116
g63
S'C:\\Users\\Foppylau\\example\\web2py\\gluon\\rocket.py'
p117
sg65
(dp118
S'sock_file'
p119
S'<socket._fileobject object>'
p120
sS'self.read_request_line'
p121
S'<bound method WSGIWorker.read_request_line of <WSGIWorker(Thread-44, started daemon 5408)>>'
p122
sS'self'
p123
S'<WSGIWorker(Thread-44, started daemon 5408)>'
p124
sS'request'
p125
g100
ssg73
I1650
sg74
(dp126
I1645
S'                                      "wsgiorg.futures": executor.futures})'
p127
sI1646
S''
sI1647
S'    def build_environ(self, sock_file, conn):'
p128
sI1648
S'        """ Build the execution environment. """'
p129
sI1649
S'        # Grab the request line'
p130
sI1650
S'        request = self.read_request_line(sock_file)'
p131
sI1651
S''
sI1652
S'        # Copy the Base Environment'
p132
sI1653
S'        environ = self.base_environ.copy()'
p133
sI1654
S''
ssg86
S'(self=<WSGIWorker(Thread-44, started daemon 5408)>, sock_file=<socket._fileobject object>, conn=<gluon.rocket.Connection object>)'
p134
sg88
S'build_environ'
p135
sa(dp136
g63
S'C:\\Users\\Foppylau\\example\\web2py\\gluon\\rocket.py'
p137
sg65
(dp138
S'global SocketTimeout'
p139
S"<class 'gluon.rocket.SocketTimeout'>"
p140
ssg73
I1401
sg74
(dp141
I1396
S''
sI1397
S'                d = sock_file.readline()'
p142
sI1398
S'                if PY3K:'
p143
sI1399
S"                    d = d.decode('ISO-8859-1')"
p144
sI1400
S'        except socket.timeout:'
p145
sI1401
S"            raise SocketTimeout('Socket timed out before request.')"
p146
sI1402
S'        except TypeError:'
p147
sI1403
S'            raise SocketClosed('
p148
sI1404
S"                'SSL bug caused closure of socket.  See '"
p149
sI1405
S'                \'"https://groups.google.com/d/topic/web2py/P_Gw0JxWzCs".\')'
p150
ssg86
S'(self=<WSGIWorker(Thread-44, started daemon 5408)>, sock_file=<socket._fileobject object>)'
p151
sg88
S'read_request_line'
p152
sasS'pyver'
p153
S'Python 2.7.12: C:\\Users\\Foppylau\\Anaconda2\\python.exe (prefix: C:\\Users\\Foppylau\\Anaconda2)'
p154
sS'etype'
p155
S"<class 'gluon.rocket.SocketTimeout'>"
p156
sS'date'
p157
S'Tue Nov 22 14:14:57 2016'
p158
sS'locals'
p159
(dp160
S'sock_file'
p161
S'<socket._fileobject object>'
p162
sS'self'
p163
S'<WSGIWorker(Thread-44, started daemon 5408)>'
p164
sssS'traceback'
p165
S'Traceback (most recent call last):\n  File "C:\\Users\\Foppylau\\example\\web2py\\gluon\\rocket.py", line 1337, in run\n    self.run_app(conn)\n  File "C:\\Users\\Foppylau\\example\\web2py\\gluon\\rocket.py", line 1830, in run_app\n    self.environ = environ = self.build_environ(sock_file, conn)\n  File "C:\\Users\\Foppylau\\example\\web2py\\gluon\\rocket.py", line 1650, in build_environ\n    request = self.read_request_line(sock_file)\n  File "C:\\Users\\Foppylau\\example\\web2py\\gluon\\rocket.py", line 1401, in read_request_line\n    raise SocketTimeout(\'Socket timed out before request.\')\nSocketTimeout: Socket timed out before request.\n'
p166
s.